

Microchip MPLAB XC8 Assembler V2.41 build 20230208172133 
                                                                                               Tue May 23 15:45:26 2023

Microchip MPLAB XC8 C Compiler v2.41 (Free license) build 20230208172133 Og1 
     1                           	processor	16F15244
     2                           	pagewidth 120
     3                           	opt	flic
     4                           	psect	nvCOMMON,global,class=COMMON,space=1,delta=1,noexec
     5                           	psect	cinit,global,class=CODE,merge=1,delta=2
     6                           	psect	cstackCOMMON,global,class=COMMON,space=1,delta=1,noexec
     7                           	psect	maintext,global,class=CODE,merge=1,split=1,delta=2
     8                           	psect	text1,local,class=CODE,merge=1,delta=2
     9                           	psect	text2,local,class=CODE,merge=1,delta=2
    10                           	psect	text3,local,class=CODE,merge=1,delta=2
    11                           	psect	text4,local,class=CODE,merge=1,delta=2
    12                           	psect	text5,local,class=CODE,merge=1,delta=2
    13                           	psect	text6,local,class=CODE,merge=1,delta=2
    14                           	psect	intentry,global,class=CODE,delta=2
    15                           	psect	text8,local,class=CODE,merge=1,delta=2
    16                           	psect	config,global,abs,ovrld,class=CONFIG,space=4,delta=2,noexec
    17                           	dabs	1,0x7E,2
    18     0000                     
    19                           ; Generated 22/03/2023 GMT
    20                           ; 
    21                           ; Copyright © 2023, Microchip Technology Inc. and its subsidiaries ("Microchip")
    22                           ; All rights reserved.
    23                           ; 
    24                           ; This software is developed by Microchip Technology Inc. and its subsidiaries ("Microch
      +                          ip").
    25                           ; 
    26                           ; Redistribution and use in source and binary forms, with or without modification, are
    27                           ; permitted provided that the following conditions are met:
    28                           ; 
    29                           ;     1. Redistributions of source code must retain the above copyright notice, this lis
      +                          t of
    30                           ;        conditions and the following disclaimer.
    31                           ; 
    32                           ;     2. Redistributions in binary form must reproduce the above copyright notice, this 
      +                          list
    33                           ;        of conditions and the following disclaimer in the documentation and/or other
    34                           ;        materials provided with the distribution. Publication is not required when
    35                           ;        this file is used in an embedded application.
    36                           ; 
    37                           ;     3. Microchip's name may not be used to endorse or promote products derived from th
      +                          is
    38                           ;        software without specific prior written permission.
    39                           ; 
    40                           ; THIS SOFTWARE IS PROVIDED BY MICROCHIP "AS IS" AND ANY EXPRESS OR IMPLIED WARRANTIES,
    41                           ; INCLUDING, BUT NOT LIMITED TO, THE IMPLIED WARRANTIES OF MERCHANTABILITY AND FITNESS F
      +                          OR
    42                           ; PURPOSE ARE DISCLAIMED.  IN NO EVENT SHALL MICROCHIP BE LIABLE FOR ANY DIRECT, INDIREC
      +                          T,
    43                           ; INCIDENTAL, SPECIAL, EXEMPLARY, OR CONSEQUENTIAL DAMAGES (INCLUDING BUT NOT LIMITED TO
    44                           ; PROCUREMENT OF SUBSTITUTE GOODS OR SERVICES; LOSS OF USE, DATA OR PROFITS; OR BUSINESS
    45                           ; INTERRUPTION) HOWSOEVER CAUSED AND ON ANY THEORY OF LIABILITY, WHETHER IN CONTRACT, ST
      +                          RICT
    46                           ; LIABILITY, OR TORT (INCLUDING NEGLIGENCE OR OTHERWISE) ARISING IN ANY WAY OUT OF THE U
      +                          SE OF
    47                           ; THIS SOFTWARE, EVEN IF ADVISED OF THE POSSIBILITY OF SUCH DAMAGE.
    48                           ; 
    49                           ; 
    50                           ; Code-generator required, PIC16F15244 Definitions
    51                           ; 
    52                           ; SFR Addresses
    53     0000                     	;# 
    54     0001                     	;# 
    55     0002                     	;# 
    56     0003                     	;# 
    57     0004                     	;# 
    58     0005                     	;# 
    59     0006                     	;# 
    60     0007                     	;# 
    61     0008                     	;# 
    62     0009                     	;# 
    63     000A                     	;# 
    64     000B                     	;# 
    65     000C                     	;# 
    66     000D                     	;# 
    67     000E                     	;# 
    68     0012                     	;# 
    69     0013                     	;# 
    70     0014                     	;# 
    71     0018                     	;# 
    72     0019                     	;# 
    73     001A                     	;# 
    74     009A                     	;# 
    75     009B                     	;# 
    76     009B                     	;# 
    77     009C                     	;# 
    78     009D                     	;# 
    79     009E                     	;# 
    80     009F                     	;# 
    81     010C                     	;# 
    82     010D                     	;# 
    83     0119                     	;# 
    84     011A                     	;# 
    85     011B                     	;# 
    86     011B                     	;# 
    87     011C                     	;# 
    88     011D                     	;# 
    89     011E                     	;# 
    90     011F                     	;# 
    91     018C                     	;# 
    92     018D                     	;# 
    93     018E                     	;# 
    94     018F                     	;# 
    95     0190                     	;# 
    96     0191                     	;# 
    97     0192                     	;# 
    98     020C                     	;# 
    99     020D                     	;# 
   100     020E                     	;# 
   101     020E                     	;# 
   102     020F                     	;# 
   103     020F                     	;# 
   104     0210                     	;# 
   105     0210                     	;# 
   106     0211                     	;# 
   107     0211                     	;# 
   108     028C                     	;# 
   109     028C                     	;# 
   110     028D                     	;# 
   111     028D                     	;# 
   112     028E                     	;# 
   113     028F                     	;# 
   114     0290                     	;# 
   115     0291                     	;# 
   116     030C                     	;# 
   117     030C                     	;# 
   118     030D                     	;# 
   119     030E                     	;# 
   120     030F                     	;# 
   121     0310                     	;# 
   122     0310                     	;# 
   123     0311                     	;# 
   124     0312                     	;# 
   125     0313                     	;# 
   126     0314                     	;# 
   127     0314                     	;# 
   128     0315                     	;# 
   129     0316                     	;# 
   130     0318                     	;# 
   131     0318                     	;# 
   132     0319                     	;# 
   133     031A                     	;# 
   134     059C                     	;# 
   135     059C                     	;# 
   136     059D                     	;# 
   137     059D                     	;# 
   138     059E                     	;# 
   139     059F                     	;# 
   140     070C                     	;# 
   141     070D                     	;# 
   142     070E                     	;# 
   143     0716                     	;# 
   144     0717                     	;# 
   145     0718                     	;# 
   146     080C                     	;# 
   147     0811                     	;# 
   148     0813                     	;# 
   149     0814                     	;# 
   150     081A                     	;# 
   151     081A                     	;# 
   152     081B                     	;# 
   153     081C                     	;# 
   154     081C                     	;# 
   155     081D                     	;# 
   156     081E                     	;# 
   157     081F                     	;# 
   158     088E                     	;# 
   159     0890                     	;# 
   160     0891                     	;# 
   161     0892                     	;# 
   162     0893                     	;# 
   163     090C                     	;# 
   164     1E8F                     	;# 
   165     1E90                     	;# 
   166     1E91                     	;# 
   167     1E92                     	;# 
   168     1E93                     	;# 
   169     1E9C                     	;# 
   170     1EA1                     	;# 
   171     1EA2                     	;# 
   172     1EC3                     	;# 
   173     1EC5                     	;# 
   174     1EC6                     	;# 
   175     1EC7                     	;# 
   176     1ECB                     	;# 
   177     1ECB                     	;# 
   178     1ECB                     	;# 
   179     1ECC                     	;# 
   180     1ECC                     	;# 
   181     1ECC                     	;# 
   182     1F10                     	;# 
   183     1F11                     	;# 
   184     1F12                     	;# 
   185     1F14                     	;# 
   186     1F15                     	;# 
   187     1F1C                     	;# 
   188     1F1D                     	;# 
   189     1F1E                     	;# 
   190     1F1F                     	;# 
   191     1F20                     	;# 
   192     1F21                     	;# 
   193     1F22                     	;# 
   194     1F23                     	;# 
   195     1F24                     	;# 
   196     1F25                     	;# 
   197     1F26                     	;# 
   198     1F27                     	;# 
   199     1F38                     	;# 
   200     1F39                     	;# 
   201     1F3A                     	;# 
   202     1F3B                     	;# 
   203     1F3C                     	;# 
   204     1F3D                     	;# 
   205     1F3E                     	;# 
   206     1F3F                     	;# 
   207     1F43                     	;# 
   208     1F44                     	;# 
   209     1F45                     	;# 
   210     1F46                     	;# 
   211     1F47                     	;# 
   212     1F48                     	;# 
   213     1F49                     	;# 
   214     1F4A                     	;# 
   215     1F4E                     	;# 
   216     1F4F                     	;# 
   217     1F50                     	;# 
   218     1F51                     	;# 
   219     1F52                     	;# 
   220     1F53                     	;# 
   221     1F54                     	;# 
   222     1F55                     	;# 
   223     1FE4                     	;# 
   224     1FE5                     	;# 
   225     1FE6                     	;# 
   226     1FE7                     	;# 
   227     1FE8                     	;# 
   228     1FE8                     	;# 
   229     1FE9                     	;# 
   230     1FEA                     	;# 
   231     1FEB                     	;# 
   232     1FED                     	;# 
   233     1FEE                     	;# 
   234     1FEF                     	;# 
   235     0000                     	;# 
   236     0001                     	;# 
   237     0002                     	;# 
   238     0003                     	;# 
   239     0004                     	;# 
   240     0005                     	;# 
   241     0006                     	;# 
   242     0007                     	;# 
   243     0008                     	;# 
   244     0009                     	;# 
   245     000A                     	;# 
   246     000B                     	;# 
   247     000C                     	;# 
   248     000D                     	;# 
   249     000E                     	;# 
   250     0012                     	;# 
   251     0013                     	;# 
   252     0014                     	;# 
   253     0018                     	;# 
   254     0019                     	;# 
   255     001A                     	;# 
   256     009A                     	;# 
   257     009B                     	;# 
   258     009B                     	;# 
   259     009C                     	;# 
   260     009D                     	;# 
   261     009E                     	;# 
   262     009F                     	;# 
   263     010C                     	;# 
   264     010D                     	;# 
   265     0119                     	;# 
   266     011A                     	;# 
   267     011B                     	;# 
   268     011B                     	;# 
   269     011C                     	;# 
   270     011D                     	;# 
   271     011E                     	;# 
   272     011F                     	;# 
   273     018C                     	;# 
   274     018D                     	;# 
   275     018E                     	;# 
   276     018F                     	;# 
   277     0190                     	;# 
   278     0191                     	;# 
   279     0192                     	;# 
   280     020C                     	;# 
   281     020D                     	;# 
   282     020E                     	;# 
   283     020E                     	;# 
   284     020F                     	;# 
   285     020F                     	;# 
   286     0210                     	;# 
   287     0210                     	;# 
   288     0211                     	;# 
   289     0211                     	;# 
   290     028C                     	;# 
   291     028C                     	;# 
   292     028D                     	;# 
   293     028D                     	;# 
   294     028E                     	;# 
   295     028F                     	;# 
   296     0290                     	;# 
   297     0291                     	;# 
   298     030C                     	;# 
   299     030C                     	;# 
   300     030D                     	;# 
   301     030E                     	;# 
   302     030F                     	;# 
   303     0310                     	;# 
   304     0310                     	;# 
   305     0311                     	;# 
   306     0312                     	;# 
   307     0313                     	;# 
   308     0314                     	;# 
   309     0314                     	;# 
   310     0315                     	;# 
   311     0316                     	;# 
   312     0318                     	;# 
   313     0318                     	;# 
   314     0319                     	;# 
   315     031A                     	;# 
   316     059C                     	;# 
   317     059C                     	;# 
   318     059D                     	;# 
   319     059D                     	;# 
   320     059E                     	;# 
   321     059F                     	;# 
   322     070C                     	;# 
   323     070D                     	;# 
   324     070E                     	;# 
   325     0716                     	;# 
   326     0717                     	;# 
   327     0718                     	;# 
   328     080C                     	;# 
   329     0811                     	;# 
   330     0813                     	;# 
   331     0814                     	;# 
   332     081A                     	;# 
   333     081A                     	;# 
   334     081B                     	;# 
   335     081C                     	;# 
   336     081C                     	;# 
   337     081D                     	;# 
   338     081E                     	;# 
   339     081F                     	;# 
   340     088E                     	;# 
   341     0890                     	;# 
   342     0891                     	;# 
   343     0892                     	;# 
   344     0893                     	;# 
   345     090C                     	;# 
   346     1E8F                     	;# 
   347     1E90                     	;# 
   348     1E91                     	;# 
   349     1E92                     	;# 
   350     1E93                     	;# 
   351     1E9C                     	;# 
   352     1EA1                     	;# 
   353     1EA2                     	;# 
   354     1EC3                     	;# 
   355     1EC5                     	;# 
   356     1EC6                     	;# 
   357     1EC7                     	;# 
   358     1ECB                     	;# 
   359     1ECB                     	;# 
   360     1ECB                     	;# 
   361     1ECC                     	;# 
   362     1ECC                     	;# 
   363     1ECC                     	;# 
   364     1F10                     	;# 
   365     1F11                     	;# 
   366     1F12                     	;# 
   367     1F14                     	;# 
   368     1F15                     	;# 
   369     1F1C                     	;# 
   370     1F1D                     	;# 
   371     1F1E                     	;# 
   372     1F1F                     	;# 
   373     1F20                     	;# 
   374     1F21                     	;# 
   375     1F22                     	;# 
   376     1F23                     	;# 
   377     1F24                     	;# 
   378     1F25                     	;# 
   379     1F26                     	;# 
   380     1F27                     	;# 
   381     1F38                     	;# 
   382     1F39                     	;# 
   383     1F3A                     	;# 
   384     1F3B                     	;# 
   385     1F3C                     	;# 
   386     1F3D                     	;# 
   387     1F3E                     	;# 
   388     1F3F                     	;# 
   389     1F43                     	;# 
   390     1F44                     	;# 
   391     1F45                     	;# 
   392     1F46                     	;# 
   393     1F47                     	;# 
   394     1F48                     	;# 
   395     1F49                     	;# 
   396     1F4A                     	;# 
   397     1F4E                     	;# 
   398     1F4F                     	;# 
   399     1F50                     	;# 
   400     1F51                     	;# 
   401     1F52                     	;# 
   402     1F53                     	;# 
   403     1F54                     	;# 
   404     1F55                     	;# 
   405     1FE4                     	;# 
   406     1FE5                     	;# 
   407     1FE6                     	;# 
   408     1FE7                     	;# 
   409     1FE8                     	;# 
   410     1FE8                     	;# 
   411     1FE9                     	;# 
   412     1FEA                     	;# 
   413     1FEB                     	;# 
   414     1FED                     	;# 
   415     1FEE                     	;# 
   416     1FEF                     	;# 
   417     0000                     	;# 
   418     0001                     	;# 
   419     0002                     	;# 
   420     0003                     	;# 
   421     0004                     	;# 
   422     0005                     	;# 
   423     0006                     	;# 
   424     0007                     	;# 
   425     0008                     	;# 
   426     0009                     	;# 
   427     000A                     	;# 
   428     000B                     	;# 
   429     000C                     	;# 
   430     000D                     	;# 
   431     000E                     	;# 
   432     0012                     	;# 
   433     0013                     	;# 
   434     0014                     	;# 
   435     0018                     	;# 
   436     0019                     	;# 
   437     001A                     	;# 
   438     009A                     	;# 
   439     009B                     	;# 
   440     009B                     	;# 
   441     009C                     	;# 
   442     009D                     	;# 
   443     009E                     	;# 
   444     009F                     	;# 
   445     010C                     	;# 
   446     010D                     	;# 
   447     0119                     	;# 
   448     011A                     	;# 
   449     011B                     	;# 
   450     011B                     	;# 
   451     011C                     	;# 
   452     011D                     	;# 
   453     011E                     	;# 
   454     011F                     	;# 
   455     018C                     	;# 
   456     018D                     	;# 
   457     018E                     	;# 
   458     018F                     	;# 
   459     0190                     	;# 
   460     0191                     	;# 
   461     0192                     	;# 
   462     020C                     	;# 
   463     020D                     	;# 
   464     020E                     	;# 
   465     020E                     	;# 
   466     020F                     	;# 
   467     020F                     	;# 
   468     0210                     	;# 
   469     0210                     	;# 
   470     0211                     	;# 
   471     0211                     	;# 
   472     028C                     	;# 
   473     028C                     	;# 
   474     028D                     	;# 
   475     028D                     	;# 
   476     028E                     	;# 
   477     028F                     	;# 
   478     0290                     	;# 
   479     0291                     	;# 
   480     030C                     	;# 
   481     030C                     	;# 
   482     030D                     	;# 
   483     030E                     	;# 
   484     030F                     	;# 
   485     0310                     	;# 
   486     0310                     	;# 
   487     0311                     	;# 
   488     0312                     	;# 
   489     0313                     	;# 
   490     0314                     	;# 
   491     0314                     	;# 
   492     0315                     	;# 
   493     0316                     	;# 
   494     0318                     	;# 
   495     0318                     	;# 
   496     0319                     	;# 
   497     031A                     	;# 
   498     059C                     	;# 
   499     059C                     	;# 
   500     059D                     	;# 
   501     059D                     	;# 
   502     059E                     	;# 
   503     059F                     	;# 
   504     070C                     	;# 
   505     070D                     	;# 
   506     070E                     	;# 
   507     0716                     	;# 
   508     0717                     	;# 
   509     0718                     	;# 
   510     080C                     	;# 
   511     0811                     	;# 
   512     0813                     	;# 
   513     0814                     	;# 
   514     081A                     	;# 
   515     081A                     	;# 
   516     081B                     	;# 
   517     081C                     	;# 
   518     081C                     	;# 
   519     081D                     	;# 
   520     081E                     	;# 
   521     081F                     	;# 
   522     088E                     	;# 
   523     0890                     	;# 
   524     0891                     	;# 
   525     0892                     	;# 
   526     0893                     	;# 
   527     090C                     	;# 
   528     1E8F                     	;# 
   529     1E90                     	;# 
   530     1E91                     	;# 
   531     1E92                     	;# 
   532     1E93                     	;# 
   533     1E9C                     	;# 
   534     1EA1                     	;# 
   535     1EA2                     	;# 
   536     1EC3                     	;# 
   537     1EC5                     	;# 
   538     1EC6                     	;# 
   539     1EC7                     	;# 
   540     1ECB                     	;# 
   541     1ECB                     	;# 
   542     1ECB                     	;# 
   543     1ECC                     	;# 
   544     1ECC                     	;# 
   545     1ECC                     	;# 
   546     1F10                     	;# 
   547     1F11                     	;# 
   548     1F12                     	;# 
   549     1F14                     	;# 
   550     1F15                     	;# 
   551     1F1C                     	;# 
   552     1F1D                     	;# 
   553     1F1E                     	;# 
   554     1F1F                     	;# 
   555     1F20                     	;# 
   556     1F21                     	;# 
   557     1F22                     	;# 
   558     1F23                     	;# 
   559     1F24                     	;# 
   560     1F25                     	;# 
   561     1F26                     	;# 
   562     1F27                     	;# 
   563     1F38                     	;# 
   564     1F39                     	;# 
   565     1F3A                     	;# 
   566     1F3B                     	;# 
   567     1F3C                     	;# 
   568     1F3D                     	;# 
   569     1F3E                     	;# 
   570     1F3F                     	;# 
   571     1F43                     	;# 
   572     1F44                     	;# 
   573     1F45                     	;# 
   574     1F46                     	;# 
   575     1F47                     	;# 
   576     1F48                     	;# 
   577     1F49                     	;# 
   578     1F4A                     	;# 
   579     1F4E                     	;# 
   580     1F4F                     	;# 
   581     1F50                     	;# 
   582     1F51                     	;# 
   583     1F52                     	;# 
   584     1F53                     	;# 
   585     1F54                     	;# 
   586     1F55                     	;# 
   587     1FE4                     	;# 
   588     1FE5                     	;# 
   589     1FE6                     	;# 
   590     1FE7                     	;# 
   591     1FE8                     	;# 
   592     1FE8                     	;# 
   593     1FE9                     	;# 
   594     1FEA                     	;# 
   595     1FEB                     	;# 
   596     1FED                     	;# 
   597     1FEE                     	;# 
   598     1FEF                     	;# 
   599     0000                     	;# 
   600     0001                     	;# 
   601     0002                     	;# 
   602     0003                     	;# 
   603     0004                     	;# 
   604     0005                     	;# 
   605     0006                     	;# 
   606     0007                     	;# 
   607     0008                     	;# 
   608     0009                     	;# 
   609     000A                     	;# 
   610     000B                     	;# 
   611     000C                     	;# 
   612     000D                     	;# 
   613     000E                     	;# 
   614     0012                     	;# 
   615     0013                     	;# 
   616     0014                     	;# 
   617     0018                     	;# 
   618     0019                     	;# 
   619     001A                     	;# 
   620     009A                     	;# 
   621     009B                     	;# 
   622     009B                     	;# 
   623     009C                     	;# 
   624     009D                     	;# 
   625     009E                     	;# 
   626     009F                     	;# 
   627     010C                     	;# 
   628     010D                     	;# 
   629     0119                     	;# 
   630     011A                     	;# 
   631     011B                     	;# 
   632     011B                     	;# 
   633     011C                     	;# 
   634     011D                     	;# 
   635     011E                     	;# 
   636     011F                     	;# 
   637     018C                     	;# 
   638     018D                     	;# 
   639     018E                     	;# 
   640     018F                     	;# 
   641     0190                     	;# 
   642     0191                     	;# 
   643     0192                     	;# 
   644     020C                     	;# 
   645     020D                     	;# 
   646     020E                     	;# 
   647     020E                     	;# 
   648     020F                     	;# 
   649     020F                     	;# 
   650     0210                     	;# 
   651     0210                     	;# 
   652     0211                     	;# 
   653     0211                     	;# 
   654     028C                     	;# 
   655     028C                     	;# 
   656     028D                     	;# 
   657     028D                     	;# 
   658     028E                     	;# 
   659     028F                     	;# 
   660     0290                     	;# 
   661     0291                     	;# 
   662     030C                     	;# 
   663     030C                     	;# 
   664     030D                     	;# 
   665     030E                     	;# 
   666     030F                     	;# 
   667     0310                     	;# 
   668     0310                     	;# 
   669     0311                     	;# 
   670     0312                     	;# 
   671     0313                     	;# 
   672     0314                     	;# 
   673     0314                     	;# 
   674     0315                     	;# 
   675     0316                     	;# 
   676     0318                     	;# 
   677     0318                     	;# 
   678     0319                     	;# 
   679     031A                     	;# 
   680     059C                     	;# 
   681     059C                     	;# 
   682     059D                     	;# 
   683     059D                     	;# 
   684     059E                     	;# 
   685     059F                     	;# 
   686     070C                     	;# 
   687     070D                     	;# 
   688     070E                     	;# 
   689     0716                     	;# 
   690     0717                     	;# 
   691     0718                     	;# 
   692     080C                     	;# 
   693     0811                     	;# 
   694     0813                     	;# 
   695     0814                     	;# 
   696     081A                     	;# 
   697     081A                     	;# 
   698     081B                     	;# 
   699     081C                     	;# 
   700     081C                     	;# 
   701     081D                     	;# 
   702     081E                     	;# 
   703     081F                     	;# 
   704     088E                     	;# 
   705     0890                     	;# 
   706     0891                     	;# 
   707     0892                     	;# 
   708     0893                     	;# 
   709     090C                     	;# 
   710     1E8F                     	;# 
   711     1E90                     	;# 
   712     1E91                     	;# 
   713     1E92                     	;# 
   714     1E93                     	;# 
   715     1E9C                     	;# 
   716     1EA1                     	;# 
   717     1EA2                     	;# 
   718     1EC3                     	;# 
   719     1EC5                     	;# 
   720     1EC6                     	;# 
   721     1EC7                     	;# 
   722     1ECB                     	;# 
   723     1ECB                     	;# 
   724     1ECB                     	;# 
   725     1ECC                     	;# 
   726     1ECC                     	;# 
   727     1ECC                     	;# 
   728     1F10                     	;# 
   729     1F11                     	;# 
   730     1F12                     	;# 
   731     1F14                     	;# 
   732     1F15                     	;# 
   733     1F1C                     	;# 
   734     1F1D                     	;# 
   735     1F1E                     	;# 
   736     1F1F                     	;# 
   737     1F20                     	;# 
   738     1F21                     	;# 
   739     1F22                     	;# 
   740     1F23                     	;# 
   741     1F24                     	;# 
   742     1F25                     	;# 
   743     1F26                     	;# 
   744     1F27                     	;# 
   745     1F38                     	;# 
   746     1F39                     	;# 
   747     1F3A                     	;# 
   748     1F3B                     	;# 
   749     1F3C                     	;# 
   750     1F3D                     	;# 
   751     1F3E                     	;# 
   752     1F3F                     	;# 
   753     1F43                     	;# 
   754     1F44                     	;# 
   755     1F45                     	;# 
   756     1F46                     	;# 
   757     1F47                     	;# 
   758     1F48                     	;# 
   759     1F49                     	;# 
   760     1F4A                     	;# 
   761     1F4E                     	;# 
   762     1F4F                     	;# 
   763     1F50                     	;# 
   764     1F51                     	;# 
   765     1F52                     	;# 
   766     1F53                     	;# 
   767     1F54                     	;# 
   768     1F55                     	;# 
   769     1FE4                     	;# 
   770     1FE5                     	;# 
   771     1FE6                     	;# 
   772     1FE7                     	;# 
   773     1FE8                     	;# 
   774     1FE8                     	;# 
   775     1FE9                     	;# 
   776     1FEA                     	;# 
   777     1FEB                     	;# 
   778     1FED                     	;# 
   779     1FEE                     	;# 
   780     1FEF                     	;# 
   781     0000                     	;# 
   782     0001                     	;# 
   783     0002                     	;# 
   784     0003                     	;# 
   785     0004                     	;# 
   786     0005                     	;# 
   787     0006                     	;# 
   788     0007                     	;# 
   789     0008                     	;# 
   790     0009                     	;# 
   791     000A                     	;# 
   792     000B                     	;# 
   793     000C                     	;# 
   794     000D                     	;# 
   795     000E                     	;# 
   796     0012                     	;# 
   797     0013                     	;# 
   798     0014                     	;# 
   799     0018                     	;# 
   800     0019                     	;# 
   801     001A                     	;# 
   802     009A                     	;# 
   803     009B                     	;# 
   804     009B                     	;# 
   805     009C                     	;# 
   806     009D                     	;# 
   807     009E                     	;# 
   808     009F                     	;# 
   809     010C                     	;# 
   810     010D                     	;# 
   811     0119                     	;# 
   812     011A                     	;# 
   813     011B                     	;# 
   814     011B                     	;# 
   815     011C                     	;# 
   816     011D                     	;# 
   817     011E                     	;# 
   818     011F                     	;# 
   819     018C                     	;# 
   820     018D                     	;# 
   821     018E                     	;# 
   822     018F                     	;# 
   823     0190                     	;# 
   824     0191                     	;# 
   825     0192                     	;# 
   826     020C                     	;# 
   827     020D                     	;# 
   828     020E                     	;# 
   829     020E                     	;# 
   830     020F                     	;# 
   831     020F                     	;# 
   832     0210                     	;# 
   833     0210                     	;# 
   834     0211                     	;# 
   835     0211                     	;# 
   836     028C                     	;# 
   837     028C                     	;# 
   838     028D                     	;# 
   839     028D                     	;# 
   840     028E                     	;# 
   841     028F                     	;# 
   842     0290                     	;# 
   843     0291                     	;# 
   844     030C                     	;# 
   845     030C                     	;# 
   846     030D                     	;# 
   847     030E                     	;# 
   848     030F                     	;# 
   849     0310                     	;# 
   850     0310                     	;# 
   851     0311                     	;# 
   852     0312                     	;# 
   853     0313                     	;# 
   854     0314                     	;# 
   855     0314                     	;# 
   856     0315                     	;# 
   857     0316                     	;# 
   858     0318                     	;# 
   859     0318                     	;# 
   860     0319                     	;# 
   861     031A                     	;# 
   862     059C                     	;# 
   863     059C                     	;# 
   864     059D                     	;# 
   865     059D                     	;# 
   866     059E                     	;# 
   867     059F                     	;# 
   868     070C                     	;# 
   869     070D                     	;# 
   870     070E                     	;# 
   871     0716                     	;# 
   872     0717                     	;# 
   873     0718                     	;# 
   874     080C                     	;# 
   875     0811                     	;# 
   876     0813                     	;# 
   877     0814                     	;# 
   878     081A                     	;# 
   879     081A                     	;# 
   880     081B                     	;# 
   881     081C                     	;# 
   882     081C                     	;# 
   883     081D                     	;# 
   884     081E                     	;# 
   885     081F                     	;# 
   886     088E                     	;# 
   887     0890                     	;# 
   888     0891                     	;# 
   889     0892                     	;# 
   890     0893                     	;# 
   891     090C                     	;# 
   892     1E8F                     	;# 
   893     1E90                     	;# 
   894     1E91                     	;# 
   895     1E92                     	;# 
   896     1E93                     	;# 
   897     1E9C                     	;# 
   898     1EA1                     	;# 
   899     1EA2                     	;# 
   900     1EC3                     	;# 
   901     1EC5                     	;# 
   902     1EC6                     	;# 
   903     1EC7                     	;# 
   904     1ECB                     	;# 
   905     1ECB                     	;# 
   906     1ECB                     	;# 
   907     1ECC                     	;# 
   908     1ECC                     	;# 
   909     1ECC                     	;# 
   910     1F10                     	;# 
   911     1F11                     	;# 
   912     1F12                     	;# 
   913     1F14                     	;# 
   914     1F15                     	;# 
   915     1F1C                     	;# 
   916     1F1D                     	;# 
   917     1F1E                     	;# 
   918     1F1F                     	;# 
   919     1F20                     	;# 
   920     1F21                     	;# 
   921     1F22                     	;# 
   922     1F23                     	;# 
   923     1F24                     	;# 
   924     1F25                     	;# 
   925     1F26                     	;# 
   926     1F27                     	;# 
   927     1F38                     	;# 
   928     1F39                     	;# 
   929     1F3A                     	;# 
   930     1F3B                     	;# 
   931     1F3C                     	;# 
   932     1F3D                     	;# 
   933     1F3E                     	;# 
   934     1F3F                     	;# 
   935     1F43                     	;# 
   936     1F44                     	;# 
   937     1F45                     	;# 
   938     1F46                     	;# 
   939     1F47                     	;# 
   940     1F48                     	;# 
   941     1F49                     	;# 
   942     1F4A                     	;# 
   943     1F4E                     	;# 
   944     1F4F                     	;# 
   945     1F50                     	;# 
   946     1F51                     	;# 
   947     1F52                     	;# 
   948     1F53                     	;# 
   949     1F54                     	;# 
   950     1F55                     	;# 
   951     1FE4                     	;# 
   952     1FE5                     	;# 
   953     1FE6                     	;# 
   954     1FE7                     	;# 
   955     1FE8                     	;# 
   956     1FE8                     	;# 
   957     1FE9                     	;# 
   958     1FEA                     	;# 
   959     1FEB                     	;# 
   960     1FED                     	;# 
   961     1FEE                     	;# 
   962     1FEF                     	;# 
   963     0000                     	;# 
   964     0001                     	;# 
   965     0002                     	;# 
   966     0003                     	;# 
   967     0004                     	;# 
   968     0005                     	;# 
   969     0006                     	;# 
   970     0007                     	;# 
   971     0008                     	;# 
   972     0009                     	;# 
   973     000A                     	;# 
   974     000B                     	;# 
   975     000C                     	;# 
   976     000D                     	;# 
   977     000E                     	;# 
   978     0012                     	;# 
   979     0013                     	;# 
   980     0014                     	;# 
   981     0018                     	;# 
   982     0019                     	;# 
   983     001A                     	;# 
   984     009A                     	;# 
   985     009B                     	;# 
   986     009B                     	;# 
   987     009C                     	;# 
   988     009D                     	;# 
   989     009E                     	;# 
   990     009F                     	;# 
   991     010C                     	;# 
   992     010D                     	;# 
   993     0119                     	;# 
   994     011A                     	;# 
   995     011B                     	;# 
   996     011B                     	;# 
   997     011C                     	;# 
   998     011D                     	;# 
   999     011E                     	;# 
  1000     011F                     	;# 
  1001     018C                     	;# 
  1002     018D                     	;# 
  1003     018E                     	;# 
  1004     018F                     	;# 
  1005     0190                     	;# 
  1006     0191                     	;# 
  1007     0192                     	;# 
  1008     020C                     	;# 
  1009     020D                     	;# 
  1010     020E                     	;# 
  1011     020E                     	;# 
  1012     020F                     	;# 
  1013     020F                     	;# 
  1014     0210                     	;# 
  1015     0210                     	;# 
  1016     0211                     	;# 
  1017     0211                     	;# 
  1018     028C                     	;# 
  1019     028C                     	;# 
  1020     028D                     	;# 
  1021     028D                     	;# 
  1022     028E                     	;# 
  1023     028F                     	;# 
  1024     0290                     	;# 
  1025     0291                     	;# 
  1026     030C                     	;# 
  1027     030C                     	;# 
  1028     030D                     	;# 
  1029     030E                     	;# 
  1030     030F                     	;# 
  1031     0310                     	;# 
  1032     0310                     	;# 
  1033     0311                     	;# 
  1034     0312                     	;# 
  1035     0313                     	;# 
  1036     0314                     	;# 
  1037     0314                     	;# 
  1038     0315                     	;# 
  1039     0316                     	;# 
  1040     0318                     	;# 
  1041     0318                     	;# 
  1042     0319                     	;# 
  1043     031A                     	;# 
  1044     059C                     	;# 
  1045     059C                     	;# 
  1046     059D                     	;# 
  1047     059D                     	;# 
  1048     059E                     	;# 
  1049     059F                     	;# 
  1050     070C                     	;# 
  1051     070D                     	;# 
  1052     070E                     	;# 
  1053     0716                     	;# 
  1054     0717                     	;# 
  1055     0718                     	;# 
  1056     080C                     	;# 
  1057     0811                     	;# 
  1058     0813                     	;# 
  1059     0814                     	;# 
  1060     081A                     	;# 
  1061     081A                     	;# 
  1062     081B                     	;# 
  1063     081C                     	;# 
  1064     081C                     	;# 
  1065     081D                     	;# 
  1066     081E                     	;# 
  1067     081F                     	;# 
  1068     088E                     	;# 
  1069     0890                     	;# 
  1070     0891                     	;# 
  1071     0892                     	;# 
  1072     0893                     	;# 
  1073     090C                     	;# 
  1074     1E8F                     	;# 
  1075     1E90                     	;# 
  1076     1E91                     	;# 
  1077     1E92                     	;# 
  1078     1E93                     	;# 
  1079     1E9C                     	;# 
  1080     1EA1                     	;# 
  1081     1EA2                     	;# 
  1082     1EC3                     	;# 
  1083     1EC5                     	;# 
  1084     1EC6                     	;# 
  1085     1EC7                     	;# 
  1086     1ECB                     	;# 
  1087     1ECB                     	;# 
  1088     1ECB                     	;# 
  1089     1ECC                     	;# 
  1090     1ECC                     	;# 
  1091     1ECC                     	;# 
  1092     1F10                     	;# 
  1093     1F11                     	;# 
  1094     1F12                     	;# 
  1095     1F14                     	;# 
  1096     1F15                     	;# 
  1097     1F1C                     	;# 
  1098     1F1D                     	;# 
  1099     1F1E                     	;# 
  1100     1F1F                     	;# 
  1101     1F20                     	;# 
  1102     1F21                     	;# 
  1103     1F22                     	;# 
  1104     1F23                     	;# 
  1105     1F24                     	;# 
  1106     1F25                     	;# 
  1107     1F26                     	;# 
  1108     1F27                     	;# 
  1109     1F38                     	;# 
  1110     1F39                     	;# 
  1111     1F3A                     	;# 
  1112     1F3B                     	;# 
  1113     1F3C                     	;# 
  1114     1F3D                     	;# 
  1115     1F3E                     	;# 
  1116     1F3F                     	;# 
  1117     1F43                     	;# 
  1118     1F44                     	;# 
  1119     1F45                     	;# 
  1120     1F46                     	;# 
  1121     1F47                     	;# 
  1122     1F48                     	;# 
  1123     1F49                     	;# 
  1124     1F4A                     	;# 
  1125     1F4E                     	;# 
  1126     1F4F                     	;# 
  1127     1F50                     	;# 
  1128     1F51                     	;# 
  1129     1F52                     	;# 
  1130     1F53                     	;# 
  1131     1F54                     	;# 
  1132     1F55                     	;# 
  1133     1FE4                     	;# 
  1134     1FE5                     	;# 
  1135     1FE6                     	;# 
  1136     1FE7                     	;# 
  1137     1FE8                     	;# 
  1138     1FE8                     	;# 
  1139     1FE9                     	;# 
  1140     1FEA                     	;# 
  1141     1FEB                     	;# 
  1142     1FED                     	;# 
  1143     1FEE                     	;# 
  1144     1FEF                     	;# 
  1145                           
  1146 ;; Function _INT_DefaultInterruptHandler is unused but had its address taken
  1147     0000                     
  1148                           	psect	nvCOMMON
  1149     0074                     __pnvCOMMON:
  1150     0074                     _INT_InterruptHandler:
  1151     0074                     	ds	2
  1152     0018                     _LATAbits	set	24
  1153     000B                     _INTCONbits	set	11
  1154     0014                     _TRISC	set	20
  1155     0013                     _TRISB	set	19
  1156     0012                     _TRISA	set	18
  1157     001A                     _LATC	set	26
  1158     0019                     _LATB	set	25
  1159     0018                     _LATA	set	24
  1160     0716                     _PIE0bits	set	1814
  1161     070C                     _PIR0bits	set	1804
  1162     080C                     _WDTCON	set	2060
  1163     0892                     _OSCTUNE	set	2194
  1164     0890                     _OSCSTAT	set	2192
  1165     0893                     _OSCFRQ	set	2195
  1166     0891                     _OSCEN	set	2193
  1167     088E                     _OSCCON	set	2190
  1168     1F55                     _IOCCF	set	8021
  1169     1F54                     _IOCCN	set	8020
  1170     1F53                     _IOCCP	set	8019
  1171     1F4A                     _IOCBF	set	8010
  1172     1F49                     _IOCBN	set	8009
  1173     1F48                     _IOCBP	set	8008
  1174     1F3F                     _IOCAF	set	7999
  1175     1F3E                     _IOCAN	set	7998
  1176     1F3D                     _IOCAP	set	7997
  1177     1F52                     _INLVLC	set	8018
  1178     1F47                     _INLVLB	set	8007
  1179     1F3C                     _INLVLA	set	7996
  1180     1F51                     _SLRCONC	set	8017
  1181     1F46                     _SLRCONB	set	8006
  1182     1F3B                     _SLRCONA	set	7995
  1183     1F50                     _ODCONC	set	8016
  1184     1F45                     _ODCONB	set	8005
  1185     1F3A                     _ODCONA	set	7994
  1186     1F4F                     _WPUC	set	8015
  1187     1F44                     _WPUB	set	8004
  1188     1F39                     _WPUA	set	7993
  1189     1F4E                     _ANSELC	set	8014
  1190     1F43                     _ANSELB	set	8003
  1191     1F38                     _ANSELA	set	7992
  1192                           
  1193                           	psect	cinit
  1194     0016                     start_initialization:	
  1195                           ; #config settings
  1196                           
  1197     0016                     __initialization:
  1198     0016                     end_of_initialization:	
  1199                           ;End of C runtime variable initialization code
  1200                           
  1201     0016                     __end_of__initialization:
  1202     0016  107E               	bcf	int$flags,0	;clear compiler interrupt flag (level 1)
  1203     0017  0140               	movlb	0
  1204     0018  3180  2848         	ljmp	_main	;jump to C main() function
  1205                           
  1206                           	psect	cstackCOMMON
  1207     0070                     __pcstackCOMMON:
  1208     0070                     ?_INT_SetInterruptHandler:
  1209     0070                     ?_CLOCK_Initialize:	
  1210                           ; 1 bytes @ 0x0
  1211                           
  1212     0070                     ??_CLOCK_Initialize:	
  1213                           ; 1 bytes @ 0x0
  1214                           
  1215     0070                     ?_WDT_Initialize:	
  1216                           ; 1 bytes @ 0x0
  1217                           
  1218     0070                     ??_WDT_Initialize:	
  1219                           ; 1 bytes @ 0x0
  1220                           
  1221     0070                     ?_PIN_MANAGER_Initialize:	
  1222                           ; 1 bytes @ 0x0
  1223                           
  1224     0070                     ??_PIN_MANAGER_Initialize:	
  1225                           ; 1 bytes @ 0x0
  1226                           
  1227     0070                     ?_PIN_MANAGER_IOC:	
  1228                           ; 1 bytes @ 0x0
  1229                           
  1230     0070                     ??_PIN_MANAGER_IOC:	
  1231                           ; 1 bytes @ 0x0
  1232                           
  1233     0070                     ?_INTERRUPT_Initialize:	
  1234                           ; 1 bytes @ 0x0
  1235                           
  1236     0070                     ?_INTERRUPT_InterruptManager:	
  1237                           ; 1 bytes @ 0x0
  1238                           
  1239     0070                     ??_INTERRUPT_InterruptManager:	
  1240                           ; 1 bytes @ 0x0
  1241                           
  1242     0070                     ?_SYSTEM_Initialize:	
  1243                           ; 1 bytes @ 0x0
  1244                           
  1245     0070                     ?_main:	
  1246                           ; 1 bytes @ 0x0
  1247                           
  1248     0070                     INT_SetInterruptHandler@InterruptHandler:	
  1249                           ; 2 bytes @ 0x0
  1250                           
  1251                           
  1252                           ; 2 bytes @ 0x0
  1253     0070                     	ds	2
  1254     0072                     ??_INT_SetInterruptHandler:
  1255     0072                     ??_INTERRUPT_Initialize:	
  1256                           ; 1 bytes @ 0x2
  1257                           
  1258     0072                     ??_SYSTEM_Initialize:	
  1259                           ; 1 bytes @ 0x2
  1260                           
  1261     0072                     ??_main:	
  1262                           ; 1 bytes @ 0x2
  1263                           
  1264                           
  1265                           ; 1 bytes @ 0x2
  1266     0072                     	ds	2
  1267                           
  1268                           	psect	maintext
  1269     0048                     __pmaintext:	
  1270 ;;
  1271 ;;Main: autosize = 0, tempsize = 2, incstack = 0, save=0
  1272 ;;
  1273 ;; *************** function _main *****************
  1274 ;; Defined at:
  1275 ;;		line 39 in file "main.c"
  1276 ;; Parameters:    Size  Location     Type
  1277 ;;		None
  1278 ;; Auto vars:     Size  Location     Type
  1279 ;;		None
  1280 ;; Return value:  Size  Location     Type
  1281 ;;                  2  144[None  ] int 
  1282 ;; Registers used:
  1283 ;;		wreg, status,2, status,0, pclath, cstack
  1284 ;; Tracked objects:
  1285 ;;		On entry : B3F/0
  1286 ;;		On exit  : 0/0
  1287 ;;		Unchanged: 0/0
  1288 ;; Data sizes:     COMMON   BANK0   BANK1   BANK2   BANK3   BANK4   BANK5   BANK6
  1289 ;;      Params:         0       0       0       0       0       0       0       0
  1290 ;;      Locals:         0       0       0       0       0       0       0       0
  1291 ;;      Temps:          2       0       0       0       0       0       0       0
  1292 ;;      Totals:         2       0       0       0       0       0       0       0
  1293 ;;Total ram usage:        2 bytes
  1294 ;; Hardware stack levels required when called: 5
  1295 ;; This function calls:
  1296 ;;		_SYSTEM_Initialize
  1297 ;; This function is called by:
  1298 ;;		Startup code after reset
  1299 ;; This function uses a non-reentrant model
  1300 ;;
  1301                           
  1302     0048                     _main:	
  1303                           ;psect for function _main
  1304                           
  1305     0048                     l766:	
  1306                           ;incstack = 0
  1307                           ; Regs used in _main: [wreg+status,2+status,0+pclath+cstack]
  1308                           
  1309                           
  1310                           ;main.c: 41:     SYSTEM_Initialize();
  1311     0048  3180  2072  3180   	fcall	_SYSTEM_Initialize
  1312     004B  0064               	clrwdt	;# 
  1313     004C                     l768:
  1314     004C  0140               	movlb	0	; select bank0
  1315     004D  1118               	bcf	24,2	;volatile
  1316     004E                     l770:
  1317                           
  1318                           ;main.c: 61:     _delay((unsigned long)((1000)*(1000000/4000.0)));
  1319     004E  3002               	movlw	2
  1320     004F  00F3               	movwf	??_main+1
  1321     0050  3045               	movlw	69
  1322     0051  00F2               	movwf	??_main
  1323     0052  30AA               	movlw	170
  1324     0053                     u87:
  1325     0053  0B89               	decfsz	9,f
  1326     0054  2853               	goto	u87
  1327     0055  0BF2               	decfsz	??_main,f
  1328     0056  2853               	goto	u87
  1329     0057  0BF3               	decfsz	??_main+1,f
  1330     0058  2853               	goto	u87
  1331     0059  0063               	sleep	;# 
  1332     005A                     l772:
  1333     005A  1003               	clrc
  1334     005B  0140               	movlb	0	; select bank0
  1335     005C  1D18               	btfss	24,2	;volatile
  1336     005D  1403               	setc
  1337     005E  1803               	btfsc	3,0
  1338     005F  2861               	goto	u61
  1339     0060  2864               	goto	u60
  1340     0061                     u61:
  1341     0061  0140               	movlb	0	; select bank0
  1342     0062  1518               	bsf	24,2	;volatile
  1343     0063  2866               	goto	u74
  1344     0064                     u60:
  1345     0064  0140               	movlb	0	; select bank0
  1346     0065  1118               	bcf	24,2	;volatile
  1347     0066                     u74:
  1348     0066                     l774:
  1349                           
  1350                           ;main.c: 66:         _delay((unsigned long)((500)*(1000000/4000.0)));
  1351     0066  30A3               	movlw	163
  1352     0067  00F2               	movwf	??_main
  1353     0068  3055               	movlw	85
  1354     0069                     u97:
  1355     0069  0B89               	decfsz	9,f
  1356     006A  2869               	goto	u97
  1357     006B  0BF2               	decfsz	??_main,f
  1358     006C  2869               	goto	u97
  1359     006D  0000               	nop
  1360     006E  0064               	clrwdt	;# 
  1361     006F  285A               	goto	l772
  1362     0070  3180  2814         	ljmp	start
  1363     0072                     __end_of_main:
  1364                           
  1365                           	psect	text1
  1366     0072                     __ptext1:	
  1367 ;; *************** function _SYSTEM_Initialize *****************
  1368 ;; Defined at:
  1369 ;;		line 37 in file "mcc_generated_files/system/src/system.c"
  1370 ;; Parameters:    Size  Location     Type
  1371 ;;		None
  1372 ;; Auto vars:     Size  Location     Type
  1373 ;;		None
  1374 ;; Return value:  Size  Location     Type
  1375 ;;                  1    wreg      void 
  1376 ;; Registers used:
  1377 ;;		wreg, status,2, status,0, pclath, cstack
  1378 ;; Tracked objects:
  1379 ;;		On entry : 0/0
  1380 ;;		On exit  : 0/0
  1381 ;;		Unchanged: 0/0
  1382 ;; Data sizes:     COMMON   BANK0   BANK1   BANK2   BANK3   BANK4   BANK5   BANK6
  1383 ;;      Params:         0       0       0       0       0       0       0       0
  1384 ;;      Locals:         0       0       0       0       0       0       0       0
  1385 ;;      Temps:          0       0       0       0       0       0       0       0
  1386 ;;      Totals:         0       0       0       0       0       0       0       0
  1387 ;;Total ram usage:        0 bytes
  1388 ;; Hardware stack levels used: 1
  1389 ;; Hardware stack levels required when called: 4
  1390 ;; This function calls:
  1391 ;;		_CLOCK_Initialize
  1392 ;;		_INTERRUPT_Initialize
  1393 ;;		_PIN_MANAGER_Initialize
  1394 ;;		_WDT_Initialize
  1395 ;; This function is called by:
  1396 ;;		_main
  1397 ;; This function uses a non-reentrant model
  1398 ;;
  1399                           
  1400     0072                     _SYSTEM_Initialize:	
  1401                           ;psect for function _SYSTEM_Initialize
  1402                           
  1403     0072                     l764:	
  1404                           ;incstack = 0
  1405                           ; Regs used in _SYSTEM_Initialize: [wreg+status,2+status,0+pclath+cstack]
  1406                           
  1407                           
  1408                           ;mcc_generated_files/system/src/system.c: 39:     CLOCK_Initialize();
  1409     0072  3180  208A  3180   	fcall	_CLOCK_Initialize
  1410                           
  1411                           ;mcc_generated_files/system/src/system.c: 40:     PIN_MANAGER_Initialize();
  1412     0075  3180  201A  3180   	fcall	_PIN_MANAGER_Initialize
  1413                           
  1414                           ;mcc_generated_files/system/src/system.c: 41:     WDT_Initialize();
  1415     0078  3180  2097  3180   	fcall	_WDT_Initialize
  1416                           
  1417                           ;mcc_generated_files/system/src/system.c: 42:     INTERRUPT_Initialize();
  1418     007B  3180  207F  3180   	fcall	_INTERRUPT_Initialize
  1419     007E                     l134:
  1420     007E  0008               	return
  1421     007F                     __end_of_SYSTEM_Initialize:
  1422                           
  1423                           	psect	text2
  1424     0097                     __ptext2:	
  1425 ;; *************** function _WDT_Initialize *****************
  1426 ;; Defined at:
  1427 ;;		line 36 in file "mcc_generated_files/system/src/watchdog.c"
  1428 ;; Parameters:    Size  Location     Type
  1429 ;;		None
  1430 ;; Auto vars:     Size  Location     Type
  1431 ;;		None
  1432 ;; Return value:  Size  Location     Type
  1433 ;;                  1    wreg      void 
  1434 ;; Registers used:
  1435 ;;		wreg
  1436 ;; Tracked objects:
  1437 ;;		On entry : 0/0
  1438 ;;		On exit  : 0/0
  1439 ;;		Unchanged: 0/0
  1440 ;; Data sizes:     COMMON   BANK0   BANK1   BANK2   BANK3   BANK4   BANK5   BANK6
  1441 ;;      Params:         0       0       0       0       0       0       0       0
  1442 ;;      Locals:         0       0       0       0       0       0       0       0
  1443 ;;      Temps:          0       0       0       0       0       0       0       0
  1444 ;;      Totals:         0       0       0       0       0       0       0       0
  1445 ;;Total ram usage:        0 bytes
  1446 ;; Hardware stack levels used: 1
  1447 ;; Hardware stack levels required when called: 2
  1448 ;; This function calls:
  1449 ;;		Nothing
  1450 ;; This function is called by:
  1451 ;;		_SYSTEM_Initialize
  1452 ;; This function uses a non-reentrant model
  1453 ;;
  1454                           
  1455     0097                     _WDT_Initialize:	
  1456                           ;psect for function _WDT_Initialize
  1457                           
  1458     0097                     l690:	
  1459                           ;incstack = 0
  1460                           ; Regs used in _WDT_Initialize: [wreg]
  1461                           
  1462                           
  1463                           ;mcc_generated_files/system/src/watchdog.c: 39:     WDTCON = 0x19;
  1464     0097  3019               	movlw	25
  1465     0098  0150               	movlb	16	; select bank16
  1466     0099  008C               	movwf	12	;volatile
  1467     009A                     l18:
  1468     009A  0008               	return
  1469     009B                     __end_of_WDT_Initialize:
  1470                           
  1471                           	psect	text3
  1472     001A                     __ptext3:	
  1473 ;; *************** function _PIN_MANAGER_Initialize *****************
  1474 ;; Defined at:
  1475 ;;		line 38 in file "mcc_generated_files/system/src/pins.c"
  1476 ;; Parameters:    Size  Location     Type
  1477 ;;		None
  1478 ;; Auto vars:     Size  Location     Type
  1479 ;;		None
  1480 ;; Return value:  Size  Location     Type
  1481 ;;                  1    wreg      void 
  1482 ;; Registers used:
  1483 ;;		wreg, status,2
  1484 ;; Tracked objects:
  1485 ;;		On entry : 0/0
  1486 ;;		On exit  : 0/0
  1487 ;;		Unchanged: 0/0
  1488 ;; Data sizes:     COMMON   BANK0   BANK1   BANK2   BANK3   BANK4   BANK5   BANK6
  1489 ;;      Params:         0       0       0       0       0       0       0       0
  1490 ;;      Locals:         0       0       0       0       0       0       0       0
  1491 ;;      Temps:          0       0       0       0       0       0       0       0
  1492 ;;      Totals:         0       0       0       0       0       0       0       0
  1493 ;;Total ram usage:        0 bytes
  1494 ;; Hardware stack levels used: 1
  1495 ;; Hardware stack levels required when called: 2
  1496 ;; This function calls:
  1497 ;;		Nothing
  1498 ;; This function is called by:
  1499 ;;		_SYSTEM_Initialize
  1500 ;; This function uses a non-reentrant model
  1501 ;;
  1502                           
  1503     001A                     _PIN_MANAGER_Initialize:	
  1504                           ;psect for function _PIN_MANAGER_Initialize
  1505                           
  1506     001A                     l692:	
  1507                           ;incstack = 0
  1508                           ; Regs used in _PIN_MANAGER_Initialize: [wreg+status,2]
  1509                           
  1510                           
  1511                           ;mcc_generated_files/system/src/pins.c: 43:     LATA = 0x4;
  1512     001A  3004               	movlw	4
  1513     001B  0140               	movlb	0	; select bank0
  1514     001C  0098               	movwf	24	;volatile
  1515     001D                     l694:
  1516                           
  1517                           ;mcc_generated_files/system/src/pins.c: 44:     LATB = 0x0;
  1518     001D  0199               	clrf	25	;volatile
  1519     001E                     l696:
  1520                           
  1521                           ;mcc_generated_files/system/src/pins.c: 45:     LATC = 0x0;
  1522     001E  019A               	clrf	26	;volatile
  1523                           
  1524                           ;mcc_generated_files/system/src/pins.c: 50:     TRISA = 0x3B;
  1525     001F  303B               	movlw	59
  1526     0020  0092               	movwf	18	;volatile
  1527                           
  1528                           ;mcc_generated_files/system/src/pins.c: 51:     TRISB = 0xF0;
  1529     0021  30F0               	movlw	240
  1530     0022  0093               	movwf	19	;volatile
  1531                           
  1532                           ;mcc_generated_files/system/src/pins.c: 52:     TRISC = 0xFF;
  1533     0023  30FF               	movlw	255
  1534     0024  0094               	movwf	20	;volatile
  1535                           
  1536                           ;mcc_generated_files/system/src/pins.c: 57:     ANSELA = 0x33;
  1537     0025  3033               	movlw	51
  1538     0026  017E               	movlb	62	; select bank62
  1539     0027  00B8               	movwf	56	;volatile
  1540                           
  1541                           ;mcc_generated_files/system/src/pins.c: 58:     ANSELB = 0xF0;
  1542     0028  30F0               	movlw	240
  1543     0029  00C3               	movwf	67	;volatile
  1544                           
  1545                           ;mcc_generated_files/system/src/pins.c: 59:     ANSELC = 0xFF;
  1546     002A  30FF               	movlw	255
  1547     002B  00CE               	movwf	78	;volatile
  1548     002C                     l698:
  1549                           
  1550                           ;mcc_generated_files/system/src/pins.c: 64:     WPUA = 0x0;
  1551     002C  01B9               	clrf	57	;volatile
  1552     002D                     l700:
  1553                           
  1554                           ;mcc_generated_files/system/src/pins.c: 65:     WPUB = 0x0;
  1555     002D  01C4               	clrf	68	;volatile
  1556     002E                     l702:
  1557                           
  1558                           ;mcc_generated_files/system/src/pins.c: 66:     WPUC = 0x0;
  1559     002E  01CF               	clrf	79	;volatile
  1560     002F                     l704:
  1561                           
  1562                           ;mcc_generated_files/system/src/pins.c: 77:     ODCONA = 0x0;
  1563     002F  01BA               	clrf	58	;volatile
  1564     0030                     l706:
  1565                           
  1566                           ;mcc_generated_files/system/src/pins.c: 78:     ODCONB = 0x0;
  1567     0030  01C5               	clrf	69	;volatile
  1568     0031                     l708:
  1569                           
  1570                           ;mcc_generated_files/system/src/pins.c: 79:     ODCONC = 0x0;
  1571     0031  01D0               	clrf	80	;volatile
  1572                           
  1573                           ;mcc_generated_files/system/src/pins.c: 83:     SLRCONA = 0x37;
  1574     0032  3037               	movlw	55
  1575     0033  00BB               	movwf	59	;volatile
  1576                           
  1577                           ;mcc_generated_files/system/src/pins.c: 84:     SLRCONB = 0xF0;
  1578     0034  30F0               	movlw	240
  1579     0035  00C6               	movwf	70	;volatile
  1580                           
  1581                           ;mcc_generated_files/system/src/pins.c: 85:     SLRCONC = 0xFF;
  1582     0036  30FF               	movlw	255
  1583     0037  00D1               	movwf	81	;volatile
  1584                           
  1585                           ;mcc_generated_files/system/src/pins.c: 89:     INLVLA = 0x3F;
  1586     0038  303F               	movlw	63
  1587     0039  00BC               	movwf	60	;volatile
  1588                           
  1589                           ;mcc_generated_files/system/src/pins.c: 90:     INLVLB = 0xF0;
  1590     003A  30F0               	movlw	240
  1591     003B  00C7               	movwf	71	;volatile
  1592                           
  1593                           ;mcc_generated_files/system/src/pins.c: 91:     INLVLC = 0xFF;
  1594     003C  30FF               	movlw	255
  1595     003D  00D2               	movwf	82	;volatile
  1596     003E                     l710:
  1597                           
  1598                           ;mcc_generated_files/system/src/pins.c: 100:     IOCAP = 0x0;
  1599     003E  01BD               	clrf	61	;volatile
  1600     003F                     l712:
  1601                           
  1602                           ;mcc_generated_files/system/src/pins.c: 101:     IOCAN = 0x0;
  1603     003F  01BE               	clrf	62	;volatile
  1604     0040                     l714:
  1605                           
  1606                           ;mcc_generated_files/system/src/pins.c: 102:     IOCAF = 0x0;
  1607     0040  01BF               	clrf	63	;volatile
  1608     0041                     l716:
  1609                           
  1610                           ;mcc_generated_files/system/src/pins.c: 103:     IOCBP = 0x0;
  1611     0041  01C8               	clrf	72	;volatile
  1612     0042                     l718:
  1613                           
  1614                           ;mcc_generated_files/system/src/pins.c: 104:     IOCBN = 0x0;
  1615     0042  01C9               	clrf	73	;volatile
  1616     0043                     l720:
  1617                           
  1618                           ;mcc_generated_files/system/src/pins.c: 105:     IOCBF = 0x0;
  1619     0043  01CA               	clrf	74	;volatile
  1620     0044                     l722:
  1621                           
  1622                           ;mcc_generated_files/system/src/pins.c: 106:     IOCCP = 0x0;
  1623     0044  01D3               	clrf	83	;volatile
  1624     0045                     l724:
  1625                           
  1626                           ;mcc_generated_files/system/src/pins.c: 107:     IOCCN = 0x0;
  1627     0045  01D4               	clrf	84	;volatile
  1628     0046                     l726:
  1629                           
  1630                           ;mcc_generated_files/system/src/pins.c: 108:     IOCCF = 0x0;
  1631     0046  01D5               	clrf	85	;volatile
  1632     0047                     l81:
  1633     0047  0008               	return
  1634     0048                     __end_of_PIN_MANAGER_Initialize:
  1635                           
  1636                           	psect	text4
  1637     007F                     __ptext4:	
  1638 ;; *************** function _INTERRUPT_Initialize *****************
  1639 ;; Defined at:
  1640 ;;		line 40 in file "mcc_generated_files/system/src/interrupt.c"
  1641 ;; Parameters:    Size  Location     Type
  1642 ;;		None
  1643 ;; Auto vars:     Size  Location     Type
  1644 ;;		None
  1645 ;; Return value:  Size  Location     Type
  1646 ;;                  1    wreg      void 
  1647 ;; Registers used:
  1648 ;;		wreg, status,2, status,0, pclath, cstack
  1649 ;; Tracked objects:
  1650 ;;		On entry : 0/0
  1651 ;;		On exit  : 0/0
  1652 ;;		Unchanged: 0/0
  1653 ;; Data sizes:     COMMON   BANK0   BANK1   BANK2   BANK3   BANK4   BANK5   BANK6
  1654 ;;      Params:         0       0       0       0       0       0       0       0
  1655 ;;      Locals:         0       0       0       0       0       0       0       0
  1656 ;;      Temps:          0       0       0       0       0       0       0       0
  1657 ;;      Totals:         0       0       0       0       0       0       0       0
  1658 ;;Total ram usage:        0 bytes
  1659 ;; Hardware stack levels used: 1
  1660 ;; Hardware stack levels required when called: 3
  1661 ;; This function calls:
  1662 ;;		_INT_SetInterruptHandler
  1663 ;; This function is called by:
  1664 ;;		_SYSTEM_Initialize
  1665 ;; This function uses a non-reentrant model
  1666 ;;
  1667                           
  1668     007F                     _INTERRUPT_Initialize:	
  1669                           ;psect for function _INTERRUPT_Initialize
  1670                           
  1671     007F                     l760:	
  1672                           ;incstack = 0
  1673                           ; Regs used in _INTERRUPT_Initialize: [wreg+status,2+status,0+pclath+cstack]
  1674                           
  1675                           
  1676                           ;mcc_generated_files/system/src/interrupt.c: 44:     (PIR0bits.INTF = 0);
  1677     007F  014E               	movlb	14	; select bank14
  1678     0080  100C               	bcf	12,0	;volatile
  1679                           
  1680                           ;mcc_generated_files/system/src/interrupt.c: 45:     (INTCONbits.INTEDG = 1);
  1681     0081  140B               	bsf	11,0	;volatile
  1682     0082                     l762:
  1683                           
  1684                           ;mcc_generated_files/system/src/interrupt.c: 47:     INT_SetInterruptHandler(INT_Default
      +                          InterruptHandler);
  1685     0082  3000               	movlw	0
  1686     0083  00F0               	movwf	INT_SetInterruptHandler@InterruptHandler
  1687     0084  3000               	movlw	0
  1688     0085  00F1               	movwf	INT_SetInterruptHandler@InterruptHandler+1
  1689     0086  3180  2092  3180   	fcall	_INT_SetInterruptHandler
  1690     0089                     l103:
  1691     0089  0008               	return
  1692     008A                     __end_of_INTERRUPT_Initialize:
  1693                           
  1694                           	psect	text5
  1695     0092                     __ptext5:	
  1696 ;; *************** function _INT_SetInterruptHandler *****************
  1697 ;; Defined at:
  1698 ;;		line 90 in file "mcc_generated_files/system/src/interrupt.c"
  1699 ;; Parameters:    Size  Location     Type
  1700 ;;  InterruptHan    2    0[COMMON] PTR FTN()void 
  1701 ;;		 -> INT_DefaultInterruptHandler(1), 
  1702 ;; Auto vars:     Size  Location     Type
  1703 ;;		None
  1704 ;; Return value:  Size  Location     Type
  1705 ;;                  1    wreg      void 
  1706 ;; Registers used:
  1707 ;;		wreg
  1708 ;; Tracked objects:
  1709 ;;		On entry : 0/0
  1710 ;;		On exit  : 0/0
  1711 ;;		Unchanged: 0/0
  1712 ;; Data sizes:     COMMON   BANK0   BANK1   BANK2   BANK3   BANK4   BANK5   BANK6
  1713 ;;      Params:         2       0       0       0       0       0       0       0
  1714 ;;      Locals:         0       0       0       0       0       0       0       0
  1715 ;;      Temps:          0       0       0       0       0       0       0       0
  1716 ;;      Totals:         2       0       0       0       0       0       0       0
  1717 ;;Total ram usage:        2 bytes
  1718 ;; Hardware stack levels used: 1
  1719 ;; Hardware stack levels required when called: 2
  1720 ;; This function calls:
  1721 ;;		Nothing
  1722 ;; This function is called by:
  1723 ;;		_INTERRUPT_Initialize
  1724 ;; This function uses a non-reentrant model
  1725 ;;
  1726                           
  1727     0092                     _INT_SetInterruptHandler:	
  1728                           ;psect for function _INT_SetInterruptHandler
  1729                           
  1730     0092                     l758:	
  1731                           ;incstack = 0
  1732                           ; Regs used in _INT_SetInterruptHandler: [wreg]
  1733                           
  1734                           
  1735                           ;mcc_generated_files/system/src/interrupt.c: 91:     INT_InterruptHandler = InterruptHan
      +                          dler;
  1736     0092  0871               	movf	INT_SetInterruptHandler@InterruptHandler+1,w
  1737     0093  00F5               	movwf	_INT_InterruptHandler+1
  1738     0094  0870               	movf	INT_SetInterruptHandler@InterruptHandler,w
  1739     0095  00F4               	movwf	_INT_InterruptHandler
  1740     0096                     l120:
  1741     0096  0008               	return
  1742     0097                     __end_of_INT_SetInterruptHandler:
  1743                           
  1744                           	psect	text6
  1745     008A                     __ptext6:	
  1746 ;; *************** function _CLOCK_Initialize *****************
  1747 ;; Defined at:
  1748 ;;		line 37 in file "mcc_generated_files/system/src/clock.c"
  1749 ;; Parameters:    Size  Location     Type
  1750 ;;		None
  1751 ;; Auto vars:     Size  Location     Type
  1752 ;;		None
  1753 ;; Return value:  Size  Location     Type
  1754 ;;                  1    wreg      void 
  1755 ;; Registers used:
  1756 ;;		wreg, status,2
  1757 ;; Tracked objects:
  1758 ;;		On entry : 0/0
  1759 ;;		On exit  : 0/0
  1760 ;;		Unchanged: 0/0
  1761 ;; Data sizes:     COMMON   BANK0   BANK1   BANK2   BANK3   BANK4   BANK5   BANK6
  1762 ;;      Params:         0       0       0       0       0       0       0       0
  1763 ;;      Locals:         0       0       0       0       0       0       0       0
  1764 ;;      Temps:          0       0       0       0       0       0       0       0
  1765 ;;      Totals:         0       0       0       0       0       0       0       0
  1766 ;;Total ram usage:        0 bytes
  1767 ;; Hardware stack levels used: 1
  1768 ;; Hardware stack levels required when called: 2
  1769 ;; This function calls:
  1770 ;;		Nothing
  1771 ;; This function is called by:
  1772 ;;		_SYSTEM_Initialize
  1773 ;; This function uses a non-reentrant model
  1774 ;;
  1775                           
  1776     008A                     _CLOCK_Initialize:	
  1777                           ;psect for function _CLOCK_Initialize
  1778                           
  1779     008A                     l680:	
  1780                           ;incstack = 0
  1781                           ; Regs used in _CLOCK_Initialize: [wreg+status,2]
  1782                           
  1783                           
  1784                           ;mcc_generated_files/system/src/clock.c: 41:     OSCCON = 0x20;
  1785     008A  3020               	movlw	32
  1786     008B  0151               	movlb	17	; select bank17
  1787     008C  008E               	movwf	14	;volatile
  1788     008D                     l682:
  1789                           
  1790                           ;mcc_generated_files/system/src/clock.c: 43:     OSCEN = 0x0;
  1791     008D  0191               	clrf	17	;volatile
  1792     008E                     l684:
  1793                           
  1794                           ;mcc_generated_files/system/src/clock.c: 45:     OSCFRQ = 0x0;
  1795     008E  0193               	clrf	19	;volatile
  1796     008F                     l686:
  1797                           
  1798                           ;mcc_generated_files/system/src/clock.c: 47:     OSCSTAT = 0x0;
  1799     008F  0190               	clrf	16	;volatile
  1800     0090                     l688:
  1801                           
  1802                           ;mcc_generated_files/system/src/clock.c: 49:     OSCTUNE = 0x0;
  1803     0090  0192               	clrf	18	;volatile
  1804     0091                     l13:
  1805     0091  0008               	return
  1806     0092                     __end_of_CLOCK_Initialize:
  1807                           
  1808                           	psect	intentry
  1809     0004                     __pintentry:	
  1810 ;; *************** function _INTERRUPT_InterruptManager *****************
  1811 ;; Defined at:
  1812 ;;		line 59 in file "mcc_generated_files/system/src/interrupt.c"
  1813 ;; Parameters:    Size  Location     Type
  1814 ;;		None
  1815 ;; Auto vars:     Size  Location     Type
  1816 ;;		None
  1817 ;; Return value:  Size  Location     Type
  1818 ;;                  1    wreg      void 
  1819 ;; Registers used:
  1820 ;;		status,2, status,0, pclath, cstack
  1821 ;; Tracked objects:
  1822 ;;		On entry : 0/0
  1823 ;;		On exit  : 0/0
  1824 ;;		Unchanged: 0/0
  1825 ;; Data sizes:     COMMON   BANK0   BANK1   BANK2   BANK3   BANK4   BANK5   BANK6
  1826 ;;      Params:         0       0       0       0       0       0       0       0
  1827 ;;      Locals:         0       0       0       0       0       0       0       0
  1828 ;;      Temps:          0       0       0       0       0       0       0       0
  1829 ;;      Totals:         0       0       0       0       0       0       0       0
  1830 ;;Total ram usage:        0 bytes
  1831 ;; Hardware stack levels used: 1
  1832 ;; Hardware stack levels required when called: 1
  1833 ;; This function calls:
  1834 ;;		_PIN_MANAGER_IOC
  1835 ;; This function is called by:
  1836 ;;		Interrupt level 1
  1837 ;; This function uses a non-reentrant model
  1838 ;;
  1839                           
  1840     0004                     _INTERRUPT_InterruptManager:
  1841                           
  1842                           ;incstack = 0
  1843     0004  147E               	bsf	int$flags,0	;set compiler interrupt flag (level 1)
  1844                           
  1845                           ; Regs used in _INTERRUPT_InterruptManager: [status,2+status,0+pclath+cstack]
  1846     0005  3180               	pagesel	$
  1847     0006                     i1l734:
  1848                           
  1849                           ;mcc_generated_files/system/src/interrupt.c: 62:     if(PIE0bits.IOCIE == 1 && PIR0bits.
      +                          IOCIF == 1)
  1850     0006  014E               	movlb	14	; select bank14
  1851     0007  1E16               	btfss	22,4	;volatile
  1852     0008  280A               	goto	u1_21
  1853     0009  280B               	goto	u1_20
  1854     000A                     u1_21:
  1855     000A  2812               	goto	i1l110
  1856     000B                     u1_20:
  1857     000B                     i1l736:
  1858     000B  1E0C               	btfss	12,4	;volatile
  1859     000C  280E               	goto	u2_21
  1860     000D  280F               	goto	u2_20
  1861     000E                     u2_21:
  1862     000E  2812               	goto	i1l110
  1863     000F                     u2_20:
  1864     000F                     i1l738:
  1865                           
  1866                           ;mcc_generated_files/system/src/interrupt.c: 63:     {;mcc_generated_files/system/src/in
      +                          terrupt.c: 64:         PIN_MANAGER_IOC();
  1867     000F  3180  209B  3180   	fcall	_PIN_MANAGER_IOC
  1868     0012                     i1l110:	
  1869                           ;mcc_generated_files/system/src/interrupt.c: 65:     }
  1870                           
  1871     0012  107E               	bcf	int$flags,0	;clear compiler interrupt flag (level 1)
  1872     0013  0009               	retfie
  1873     0014                     __end_of_INTERRUPT_InterruptManager:
  1874                           
  1875                           	psect	text8
  1876     009B                     __ptext8:	
  1877 ;; *************** function _PIN_MANAGER_IOC *****************
  1878 ;; Defined at:
  1879 ;;		line 113 in file "mcc_generated_files/system/src/pins.c"
  1880 ;; Parameters:    Size  Location     Type
  1881 ;;		None
  1882 ;; Auto vars:     Size  Location     Type
  1883 ;;		None
  1884 ;; Return value:  Size  Location     Type
  1885 ;;                  1    wreg      void 
  1886 ;; Registers used:
  1887 ;;		None
  1888 ;; Tracked objects:
  1889 ;;		On entry : 0/0
  1890 ;;		On exit  : 0/0
  1891 ;;		Unchanged: 0/0
  1892 ;; Data sizes:     COMMON   BANK0   BANK1   BANK2   BANK3   BANK4   BANK5   BANK6
  1893 ;;      Params:         0       0       0       0       0       0       0       0
  1894 ;;      Locals:         0       0       0       0       0       0       0       0
  1895 ;;      Temps:          0       0       0       0       0       0       0       0
  1896 ;;      Totals:         0       0       0       0       0       0       0       0
  1897 ;;Total ram usage:        0 bytes
  1898 ;; Hardware stack levels used: 1
  1899 ;; This function calls:
  1900 ;;		Nothing
  1901 ;; This function is called by:
  1902 ;;		_INTERRUPT_InterruptManager
  1903 ;; This function uses a non-reentrant model
  1904 ;;
  1905                           
  1906     009B                     _PIN_MANAGER_IOC:	
  1907                           ;psect for function _PIN_MANAGER_IOC
  1908                           
  1909     009B                     i1l84:	
  1910                           ;incstack = 0
  1911                           ; Regs used in _PIN_MANAGER_IOC: []
  1912                           
  1913     009B  0008               	return
  1914     009C                     __end_of_PIN_MANAGER_IOC:
  1915     007E                     btemp	set	126	;btemp
  1916     007E                     int$flags	set	126
  1917     007E                     wtemp0	set	126
  1918                           
  1919                           	psect	config
  1920                           
  1921                           ;Config register CONFIG1 @ 0x8007
  1922                           ;	External Oscillator Mode Selection bits
  1923                           ;	FEXTOSC = OFF, Oscillator not enabled
  1924                           ;	Power-up Default Value for COSC bits
  1925                           ;	RSTOSC = HFINTOSC_1MHZ, HFINTOSC (1 MHz)
  1926                           ;	Clock Out Enable bit
  1927                           ;	CLKOUTEN = OFF, CLKOUT function is disabled; I/O function on RA4
  1928                           ;	VDD Range Analog Calibration Selection bit
  1929                           ;	VDDAR = HI, Internal analog systems are calibrated for operation between VDD = 2.3V - 
      +                          5.5V
  1930     8007                     	org	32775
  1931     8007  3FED               	dw	16365
  1932                           
  1933                           ;Config register CONFIG2 @ 0x8008
  1934                           ;	Master Clear Enable bit
  1935                           ;	MCLRE = EXTMCLR, If LVP = 0, MCLR pin is MCLR; If LVP = 1, RA3 pin function is MCLR
  1936                           ;	Power-up Timer Selection bits
  1937                           ;	PWRTS = PWRT_OFF, PWRT is disabled
  1938                           ;	WDT Operating Mode bits
  1939                           ;	WDTE = SWDTEN, WDT enabled/disabled by SEN bit
  1940                           ;	Brown-out Reset Enable bits
  1941                           ;	BOREN = ON, Brown-out Reset Enabled, SBOREN bit is ignored
  1942                           ;	Brown-out Reset Voltage Selection bit
  1943                           ;	BORV = LO, Brown-out Reset Voltage (VBOR) set to 1.9V
  1944                           ;	PPSLOCKED One-Way Set Enable bit
  1945                           ;	PPS1WAY = ON, The PPSLOCKED bit can be set once after an unlocking sequence is execute
      +                          d; once PPSLOCKED is set, all future changes to PPS registers are prevented
  1946                           ;	Stack Overflow/Underflow Reset Enable bit
  1947                           ;	STVREN = ON, Stack Overflow or Underflow will cause a reset
  1948     8008                     	org	32776
  1949     8008  3FEF               	dw	16367
  1950                           
  1951                           ;Config register CONFIG4 @ 0x800A
  1952                           ;	Boot Block Size Selection bits
  1953                           ;	BBSIZE = BB512, 512 words boot block size
  1954                           ;	Boot Block Enable bit
  1955                           ;	BBEN = OFF, Boot Block is disabled
  1956                           ;	SAF Enable bit
  1957                           ;	SAFEN = OFF, SAF is disabled
  1958                           ;	Application Block Write Protection bit
  1959                           ;	WRTAPP = OFF, Application Block is not write-protected
  1960                           ;	Boot Block Write Protection bit
  1961                           ;	WRTB = OFF, Boot Block is not write-protected
  1962                           ;	Configuration Registers Write Protection bit
  1963                           ;	WRTC = OFF, Configuration Registers are not write-protected
  1964                           ;	Storage Area Flash (SAF) Write Protection bit
  1965                           ;	WRTSAF = OFF, SAF is not write-protected
  1966                           ;	Low Voltage Programming Enable bit
  1967                           ;	LVP = ON, Low Voltage programming enabled. MCLR/Vpp pin function is MCLR. MCLRE Config
      +                          uration bit is ignored.
  1968     800A                     	org	32778
  1969     800A  3FFF               	dw	16383
  1970                           
  1971                           ;Config register CONFIG5 @ 0x800B
  1972                           ;	User Program Flash Memory Code Protection bit
  1973                           ;	CP = OFF, User Program Flash Memory code protection is disabled
  1974     800B                     	org	32779
  1975     800B  3FFF               	dw	16383

Data Sizes:
    Strings     0
    Constant    0
    Data        0
    BSS         0
    Persistent  34
    Stack       0

Auto Spaces:
    Space          Size  Autos    Used
    COMMON           14      4       6
    BANK0            80      0       0
    BANK1            80      0       0
    BANK2            80      0       0
    BANK3            80      0       0
    BANK4            80      0       0
    BANK5            80      0       0
    BANK6            16      0       0

Pointer List with Targets:

    INT_SetInterruptHandler@InterruptHandler	PTR FTN()void  size(2) Largest target is 1
		 -> INT_DefaultInterruptHandler(), 

    INT_InterruptHandler	PTR FTN()void  size(2) Largest target is 1
		 -> NULL(), INT_DefaultInterruptHandler(), 


Critical Paths under _main in COMMON

    _INTERRUPT_Initialize->_INT_SetInterruptHandler

Critical Paths under _INTERRUPT_InterruptManager in COMMON

    None.

Critical Paths under _main in BANK0

    None.

Critical Paths under _INTERRUPT_InterruptManager in BANK0

    None.

Critical Paths under _main in BANK1

    None.

Critical Paths under _INTERRUPT_InterruptManager in BANK1

    None.

Critical Paths under _main in BANK2

    None.

Critical Paths under _INTERRUPT_InterruptManager in BANK2

    None.

Critical Paths under _main in BANK3

    None.

Critical Paths under _INTERRUPT_InterruptManager in BANK3

    None.

Critical Paths under _main in BANK4

    None.

Critical Paths under _INTERRUPT_InterruptManager in BANK4

    None.

Critical Paths under _main in BANK5

    None.

Critical Paths under _INTERRUPT_InterruptManager in BANK5

    None.

Critical Paths under _main in BANK6

    None.

Critical Paths under _INTERRUPT_InterruptManager in BANK6

    None.

Call Graph Tables:

 ---------------------------------------------------------------------------------
 (Depth) Function   	        Calls       Base Space   Used Autos Params    Refs
 ---------------------------------------------------------------------------------
 (0) _main                                                 2     2      0      98
                                              2 COMMON     2     2      0
                  _SYSTEM_Initialize
 ---------------------------------------------------------------------------------
 (1) _SYSTEM_Initialize                                    0     0      0      98
                   _CLOCK_Initialize
               _INTERRUPT_Initialize
             _PIN_MANAGER_Initialize
                     _WDT_Initialize
 ---------------------------------------------------------------------------------
 (2) _WDT_Initialize                                       0     0      0       0
 ---------------------------------------------------------------------------------
 (2) _PIN_MANAGER_Initialize                               0     0      0       0
 ---------------------------------------------------------------------------------
 (2) _INTERRUPT_Initialize                                 0     0      0      98
            _INT_SetInterruptHandler
 ---------------------------------------------------------------------------------
 (3) _INT_SetInterruptHandler                              2     0      2      98
                                              0 COMMON     2     0      2
 ---------------------------------------------------------------------------------
 (2) _CLOCK_Initialize                                     0     0      0       0
 ---------------------------------------------------------------------------------
 Estimated maximum stack depth 3
 ---------------------------------------------------------------------------------
 (Depth) Function   	        Calls       Base Space   Used Autos Params    Refs
 ---------------------------------------------------------------------------------
 (4) _INTERRUPT_InterruptManager                           0     0      0       0
                    _PIN_MANAGER_IOC
 ---------------------------------------------------------------------------------
 (5) _PIN_MANAGER_IOC                                      0     0      0       0
 ---------------------------------------------------------------------------------
 Estimated maximum stack depth 5
 ---------------------------------------------------------------------------------

 Call Graph Graphs:

 _main (ROOT)
   _SYSTEM_Initialize
     _CLOCK_Initialize
     _INTERRUPT_Initialize
       _INT_SetInterruptHandler
     _PIN_MANAGER_Initialize
     _WDT_Initialize

 _INTERRUPT_InterruptManager (ROOT)
   _PIN_MANAGER_IOC

 Address spaces:
Name               Size   Autos  Total    Cost      Usage
BIGRAM             1F0      0       0       0        0.0%
NULL                 0      0       0       0        0.0%
CODE                 0      0       0       0        0.0%
BITCOMMON            E      0       0       1        0.0%
BITSFR0              0      0       0       1        0.0%
SFR0                 0      0       0       1        0.0%
COMMON               E      4       6       2       42.9%
BITSFR1              0      0       0       2        0.0%
SFR1                 0      0       0       2        0.0%
BITSFR2              0      0       0       3        0.0%
SFR2                 0      0       0       3        0.0%
STACK                0      0       0       3        0.0%
BITSFR3              0      0       0       4        0.0%
SFR3                 0      0       0       4        0.0%
ABS                  0      0       6       4        0.0%
BITBANK0            50      0       0       5        0.0%
BITSFR4              0      0       0       5        0.0%
SFR4                 0      0       0       5        0.0%
BANK0               50      0       0       6        0.0%
BITSFR5              0      0       0       6        0.0%
SFR5                 0      0       0       6        0.0%
BITBANK1            50      0       0       7        0.0%
BITSFR6              0      0       0       7        0.0%
SFR6                 0      0       0       7        0.0%
BANK1               50      0       0       8        0.0%
BITSFR7              0      0       0       8        0.0%
SFR7                 0      0       0       8        0.0%
BITBANK2            50      0       0       9        0.0%
BITSFR8              0      0       0       9        0.0%
SFR8                 0      0       0       9        0.0%
BANK2               50      0       0      10        0.0%
BITSFR9              0      0       0      10        0.0%
SFR9                 0      0       0      10        0.0%
BITBANK3            50      0       0      11        0.0%
BITSFR10             0      0       0      11        0.0%
SFR10                0      0       0      11        0.0%
BANK3               50      0       0      12        0.0%
BITSFR11             0      0       0      12        0.0%
SFR11                0      0       0      12        0.0%
BITBANK4            50      0       0      13        0.0%
BITSFR12             0      0       0      13        0.0%
SFR12                0      0       0      13        0.0%
BANK4               50      0       0      14        0.0%
BITSFR13             0      0       0      14        0.0%
SFR13                0      0       0      14        0.0%
BITBANK5            50      0       0      15        0.0%
BITSFR14             0      0       0      15        0.0%
SFR14                0      0       0      15        0.0%
BANK5               50      0       0      16        0.0%
BITSFR15             0      0       0      16        0.0%
SFR15                0      0       0      16        0.0%
BITBANK6            10      0       0      17        0.0%
BITSFR16             0      0       0      17        0.0%
SFR16                0      0       0      17        0.0%
BANK6               10      0       0      18        0.0%
BITSFR17             0      0       0      18        0.0%
SFR17                0      0       0      18        0.0%
BITSFR18             0      0       0      19        0.0%
SFR18                0      0       0      19        0.0%
DATA                 0      0       6      19        0.0%
BITSFR19             0      0       0      20        0.0%
SFR19                0      0       0      20        0.0%
BITSFR20             0      0       0      21        0.0%
SFR20                0      0       0      21        0.0%
BITSFR21             0      0       0      22        0.0%
SFR21                0      0       0      22        0.0%
BITSFR22             0      0       0      23        0.0%
SFR22                0      0       0      23        0.0%
BITSFR23             0      0       0      24        0.0%
SFR23                0      0       0      24        0.0%
BITSFR24             0      0       0      25        0.0%
SFR24                0      0       0      25        0.0%
BITSFR25             0      0       0      26        0.0%
SFR25                0      0       0      26        0.0%
BITSFR26             0      0       0      27        0.0%
SFR26                0      0       0      27        0.0%
BITSFR27             0      0       0      28        0.0%
SFR27                0      0       0      28        0.0%
BITSFR28             0      0       0      29        0.0%
SFR28                0      0       0      29        0.0%
BITSFR29             0      0       0      30        0.0%
SFR29                0      0       0      30        0.0%
BITSFR30             0      0       0      31        0.0%
SFR30                0      0       0      31        0.0%
BITSFR31             0      0       0      32        0.0%
SFR31                0      0       0      32        0.0%
BITSFR32             0      0       0      33        0.0%
SFR32                0      0       0      33        0.0%
BITSFR33             0      0       0      34        0.0%
SFR33                0      0       0      34        0.0%
BITSFR34             0      0       0      35        0.0%
SFR34                0      0       0      35        0.0%
BITSFR35             0      0       0      36        0.0%
SFR35                0      0       0      36        0.0%
BITSFR36             0      0       0      37        0.0%
SFR36                0      0       0      37        0.0%
BITSFR37             0      0       0      38        0.0%
SFR37                0      0       0      38        0.0%
BITSFR38             0      0       0      39        0.0%
SFR38                0      0       0      39        0.0%
BITSFR39             0      0       0      40        0.0%
SFR39                0      0       0      40        0.0%
BITSFR40             0      0       0      41        0.0%
SFR40                0      0       0      41        0.0%
BITSFR41             0      0       0      42        0.0%
SFR41                0      0       0      42        0.0%
BITSFR42             0      0       0      43        0.0%
SFR42                0      0       0      43        0.0%
BITSFR43             0      0       0      44        0.0%
SFR43                0      0       0      44        0.0%
BITSFR44             0      0       0      45        0.0%
SFR44                0      0       0      45        0.0%
BITSFR45             0      0       0      46        0.0%
SFR45                0      0       0      46        0.0%
BITSFR46             0      0       0      47        0.0%
SFR46                0      0       0      47        0.0%
BITSFR47             0      0       0      48        0.0%
SFR47                0      0       0      48        0.0%
BITSFR48             0      0       0      49        0.0%
SFR48                0      0       0      49        0.0%
BITSFR49             0      0       0      50        0.0%
SFR49                0      0       0      50        0.0%
BITSFR50             0      0       0      51        0.0%
SFR50                0      0       0      51        0.0%
BITSFR51             0      0       0      52        0.0%
SFR51                0      0       0      52        0.0%
BITSFR52             0      0       0      53        0.0%
SFR52                0      0       0      53        0.0%
BITSFR53             0      0       0      54        0.0%
SFR53                0      0       0      54        0.0%
BITSFR54             0      0       0      55        0.0%
SFR54                0      0       0      55        0.0%
BITSFR55             0      0       0      56        0.0%
SFR55                0      0       0      56        0.0%
BITSFR56             0      0       0      57        0.0%
SFR56                0      0       0      57        0.0%
BITSFR57             0      0       0      58        0.0%
SFR57                0      0       0      58        0.0%
BITSFR58             0      0       0      59        0.0%
SFR58                0      0       0      59        0.0%
BITSFR59             0      0       0      60        0.0%
SFR59                0      0       0      60        0.0%
BITSFR60             0      0       0      61        0.0%
SFR60                0      0       0      61        0.0%
BITSFR61             0      0       0      62        0.0%
SFR61                0      0       0      62        0.0%
BITSFR62             0      0       0      63        0.0%
SFR62                0      0       0      63        0.0%
BITSFR63             0      0       0      64        0.0%
SFR63                0      0       0      64        0.0%


Microchip Technology PIC Macro Assembler V2.41 build 20230208172133 
Symbol Table                                                                                   Tue May 23 15:45:26 2023

                                     l13 0091                                       l18 009A  
                                     l81 0047                                       u60 0064  
                                     u61 0061                                       u74 0066  
                                     u87 0053                                       u97 0069  
                                    l103 0089                                      l120 0096  
                                    l134 007E                                      l700 002D  
                                    l710 003E                                      l702 002E  
                                    l720 0043                                      l712 003F  
                                    l704 002F                                      l722 0044  
                                    l714 0040                                      l706 0030  
                                    l724 0045                                      l716 0041  
                                    l708 0031                                      l726 0046  
                                    l718 0042                                      l680 008A  
                                    l760 007F                                      l682 008D  
                                    l762 0082                                      l690 0097  
                                    l770 004E                                      l684 008E  
                                    l692 001A                                      l764 0072  
                                    l772 005A                                      l686 008F  
                                    l758 0092                                      l694 001D  
                                    l774 0066                                      l766 0048  
                                    l688 0090                                      l696 001E  
                                    l768 004C                                      l698 002C  
                                    wreg 0009                                     _LATA 0018  
                                   _LATB 0019                                     _LATC 001A  
                                   i1l84 009B                                     _WPUA 1F39  
                                   _WPUB 1F44                                     _WPUC 1F4F  
                                   u1_20 000B                                     u1_21 000A  
                                   u2_20 000F                                     u2_21 000E  
                                   _main 0048                                     btemp 007E  
            _INT_DefaultInterruptHandler 0000                                     start 0014  
        __end_of_INT_SetInterruptHandler 0097                                    ?_main 0070  
                                  _IOCAF 1F3F                                    _IOCBF 1F4A  
                                  _IOCCF 1F55                                    _IOCAN 1F3E  
                                  _IOCAP 1F3D                                    _IOCBN 1F49  
                                  _IOCBP 1F48                                    _IOCCN 1F54  
                                  _IOCCP 1F53                                    i1l110 0012  
                                  i1l734 0006                                    i1l736 000B  
                                  i1l738 000F                                    _OSCEN 0891  
                                  _TRISA 0012                                    _TRISB 0013  
                                  _TRISC 0014                  __end_of_PIN_MANAGER_IOC 009C  
                         _WDT_Initialize 0097                                    status 0003  
                                  wtemp0 007E                          __initialization 0016  
                           __end_of_main 0072              ?_INTERRUPT_InterruptManager 0070  
                                 ??_main 0072                   __end_of_WDT_Initialize 009B  
                                 _ANSELA 1F38                                   _ANSELB 1F43  
                                 _ANSELC 1F4E                                   _ODCONA 1F3A  
                                 _ODCONB 1F45                                   _ODCONC 1F50  
                                 _INLVLA 1F3C                                   _INLVLB 1F47  
                                 _INLVLC 1F52                                   _OSCCON 088E  
                                 _OSCFRQ 0893                                   _WDTCON 080C  
                      ?_CLOCK_Initialize 0070                       ??_CLOCK_Initialize 0070  
                        ?_WDT_Initialize 0070  INT_SetInterruptHandler@InterruptHandler 0070  
                       ?_PIN_MANAGER_IOC 0070                        _SYSTEM_Initialize 0072  
                __end_of__initialization 0016                       ?_SYSTEM_Initialize 0070  
                         __pcstackCOMMON 0070                      ??_SYSTEM_Initialize 0072  
              __end_of_SYSTEM_Initialize 007F                               __pnvCOMMON 0074  
                             __pmaintext 0048                               __pintentry 0004  
                                _OSCSTAT 0890                                  _OSCTUNE 0892  
                                _SLRCONA 1F3B                                  _SLRCONB 1F46  
                                _SLRCONC 1F51                                  __ptext1 0072  
                                __ptext2 0097                                  __ptext3 001A  
                                __ptext4 007F                                  __ptext5 0092  
                                __ptext6 008A                                  __ptext8 009B  
               ??_PIN_MANAGER_Initialize 0070                  _INT_SetInterruptHandler 0092  
                   end_of_initialization 0016                         ??_WDT_Initialize 0070  
           __end_of_INTERRUPT_Initialize 008A                ??_INT_SetInterruptHandler 0072  
                    start_initialization 0016                                ___latbits 0001  
                 _PIN_MANAGER_Initialize 001A             ??_INTERRUPT_InterruptManager 0070  
                   _INTERRUPT_Initialize 007F                         _CLOCK_Initialize 008A  
                               _LATAbits 0018                                 _PIE0bits 0716  
                               _PIR0bits 070C                        ??_PIN_MANAGER_IOC 0070  
                  ?_INTERRUPT_Initialize 0070                                 int$flags 007E  
     __end_of_INTERRUPT_InterruptManager 0014               _INTERRUPT_InterruptManager 0004  
                             _INTCONbits 000B                     _INT_InterruptHandler 0074  
                 ??_INTERRUPT_Initialize 0072                                 intlevel1 0000  
                ?_PIN_MANAGER_Initialize 0070                 ?_INT_SetInterruptHandler 0070  
               __end_of_CLOCK_Initialize 0092           __end_of_PIN_MANAGER_Initialize 0048  
                        _PIN_MANAGER_IOC 009B  
